target datalayout = "e-m:e-p270:32:32-p271:32:32-p272:64:64-i64:64-i128:128-f80:128-n8:16:32:64-S128"
target triple = "x86_64-pc-linux-gnu"

@hf_ecmp_file_status = internal global i32 0, align 4
@hf_ecmp_file_handle = internal global i32 0, align 4
@hf_ecmp_file_ref_point = internal global i32 0, align 4
@hf_ecmp_ref_offset = internal global i32 0, align 4
@ett_ecmp_file_position = internal global i32 0, align 4
@.str.646 = private unnamed_addr constant [9 x i8] c"Position\00", align 1

; Function Attrs: null_pointer_is_valid sspstrong uwtable
define internal void @file_pos(i32 noundef %0, i1 noundef zeroext %1, ptr noundef %2, ptr noundef %3) #0 {
  %5 = alloca i32, align 4
  %6 = alloca i8, align 1
  %7 = alloca ptr, align 8
  %8 = alloca ptr, align 8
  %9 = alloca ptr, align 8
  store i32 %0, ptr %5, align 4
  %10 = zext i1 %1 to i8
  store i8 %10, ptr %6, align 1
  store ptr %2, ptr %7, align 8
  store ptr %3, ptr %8, align 8
  call void @llvm.lifetime.start.p0(i64 8, ptr %9) #3
  store ptr null, ptr %9, align 8
  %11 = load i8, ptr %6, align 1, !range !6, !noundef !7
  %12 = trunc i8 %11 to i1
  br i1 %12, label %13, label %38

13:                                               ; preds = %4
  %14 = load ptr, ptr %8, align 8
  %15 = load i32, ptr @hf_ecmp_file_handle, align 4
  %16 = load ptr, ptr %7, align 8
  %17 = load i32, ptr %5, align 4
  %18 = call ptr @proto_tree_add_item(ptr noundef %14, i32 noundef %15, ptr noundef %16, i32 noundef %17, i32 noundef 2, i32 noundef 0)
  %19 = load i32, ptr %5, align 4
  %20 = add i32 %19, 2
  store i32 %20, ptr %5, align 4
  %21 = load ptr, ptr %8, align 8
  %22 = load ptr, ptr %7, align 8
  %23 = load i32, ptr %5, align 4
  %24 = load i32, ptr @ett_ecmp_file_position, align 4
  %25 = call ptr @proto_tree_add_subtree(ptr noundef %21, ptr noundef %22, i32 noundef %23, i32 noundef 5, i32 noundef %24, ptr noundef null, ptr noundef @.str.646)
  store ptr %25, ptr %9, align 8
  %26 = load ptr, ptr %9, align 8
  %27 = load i32, ptr @hf_ecmp_file_ref_point, align 4
  %28 = load ptr, ptr %7, align 8
  %29 = load i32, ptr %5, align 4
  %30 = call ptr @proto_tree_add_item(ptr noundef %26, i32 noundef %27, ptr noundef %28, i32 noundef %29, i32 noundef 1, i32 noundef 0)
  %31 = load i32, ptr %5, align 4
  %32 = add i32 %31, 1
  store i32 %32, ptr %5, align 4
  %33 = load ptr, ptr %9, align 8
  %34 = load i32, ptr @hf_ecmp_ref_offset, align 4
  %35 = load ptr, ptr %7, align 8
  %36 = load i32, ptr %5, align 4
  %37 = call ptr @proto_tree_add_item(ptr noundef %33, i32 noundef %34, ptr noundef %35, i32 noundef %36, i32 noundef 4, i32 noundef 0)
  br label %58

38:                                               ; preds = %4
  %39 = load ptr, ptr %8, align 8
  %40 = load i32, ptr @hf_ecmp_file_status, align 4
  %41 = load ptr, ptr %7, align 8
  %42 = load i32, ptr %5, align 4
  %43 = call ptr @proto_tree_add_item(ptr noundef %39, i32 noundef %40, ptr noundef %41, i32 noundef %42, i32 noundef 1, i32 noundef 0)
  %44 = load ptr, ptr %7, align 8
  %45 = load i32, ptr %5, align 4
  %46 = call signext i8 @tvb_get_int8(ptr noundef %44, i32 noundef %45)
  %47 = sext i8 %46 to i32
  %48 = icmp sge i32 %47, 0
  br i1 %48, label %49, label %57

49:                                               ; preds = %38
  %50 = load i32, ptr %5, align 4
  %51 = add i32 %50, 1
  store i32 %51, ptr %5, align 4
  %52 = load ptr, ptr %9, align 8
  %53 = load i32, ptr @hf_ecmp_ref_offset, align 4
  %54 = load ptr, ptr %7, align 8
  %55 = load i32, ptr %5, align 4
  %56 = call ptr @proto_tree_add_item(ptr noundef %52, i32 noundef %53, ptr noundef %54, i32 noundef %55, i32 noundef 4, i32 noundef 0)
  br label %57

57:                                               ; preds = %49, %38
  br label %58

58:                                               ; preds = %57, %13
  call void @llvm.lifetime.end.p0(i64 8, ptr %9) #3
  ret void
}