; Function Attrs: null_pointer_is_valid sspstrong uwtable
define internal fastcc void @file_pos(i32 noundef %0, i1 noundef zeroext %1, ptr noundef %2, ptr noundef %3) unnamed_addr #0 {
  br i1 %1, label %5, label %13

5:                                                ; preds = %4
  %6 = load i32, ptr @hf_ecmp_file_handle, align 4
  %7 = tail call ptr @proto_tree_add_item(ptr noundef %3, i32 noundef %6, ptr noundef %2, i32 noundef %0, i32 noundef 2, i32 noundef 0)
  %8 = add i32 %0, 2
  %9 = load i32, ptr @ett_ecmp_file_position, align 4
  %10 = tail call ptr @proto_tree_add_subtree(ptr noundef %3, ptr noundef %2, i32 noundef %8, i32 noundef 5, i32 noundef %9, ptr noundef null, ptr noundef nonnull @.str.646)
  %11 = load i32, ptr @hf_ecmp_file_ref_point, align 4
  %12 = tail call ptr @proto_tree_add_item(ptr noundef %10, i32 noundef %11, ptr noundef %2, i32 noundef %8, i32 noundef 1, i32 noundef 0)
  br label %.sink.split

13:                                               ; preds = %4
  %14 = load i32, ptr @hf_ecmp_file_status, align 4
  %15 = tail call ptr @proto_tree_add_item(ptr noundef %3, i32 noundef %14, ptr noundef %2, i32 noundef %0, i32 noundef 1, i32 noundef 0)
  %16 = tail call signext i8 @tvb_get_int8(ptr noundef %2, i32 noundef %0)
  %17 = icmp sgt i8 %16, -1
  br i1 %17, label %.sink.split, label %21

.sink.split:                                      ; preds = %13, %5
  %.sink25 = phi i32 [ 3, %5 ], [ 1, %13 ]
  %.sink = phi ptr [ %10, %5 ], [ null, %13 ]
  %18 = add i32 %0, %.sink25
  %19 = load i32, ptr @hf_ecmp_ref_offset, align 4
  %20 = tail call ptr @proto_tree_add_item(ptr noundef %.sink, i32 noundef %19, ptr noundef %2, i32 noundef %18, i32 noundef 4, i32 noundef 0)
  br label %21

21:                                               ; preds = %.sink.split, %13
  ret void
}